target datalayout = "e-m:e-p270:32:32-p271:32:32-p272:64:64-i64:64-i128:128-f80:128-n8:16:32:64-S128"
target triple = "x86_64-pc-linux-gnu"

%struct._object = type { %union.anon, ptr }
%union.anon = type { i64 }
%struct.wrapperobject = type { %struct._object, ptr, ptr }

; Function Attrs: nounwind uwtable
define internal i64 @wrapper_hash(ptr noundef %0) #0 {
  %2 = alloca ptr, align 8
  %3 = alloca ptr, align 8
  %4 = alloca i64, align 8
  %5 = alloca i64, align 8
  store ptr %0, ptr %2, align 8, !tbaa !4
  call void @llvm.lifetime.start.p0(i64 8, ptr %3) #6
  %6 = load ptr, ptr %2, align 8, !tbaa !4
  store ptr %6, ptr %3, align 8, !tbaa !9
  call void @llvm.lifetime.start.p0(i64 8, ptr %4) #6
  call void @llvm.lifetime.start.p0(i64 8, ptr %5) #6
  %7 = load ptr, ptr %3, align 8, !tbaa !9
  %8 = getelementptr inbounds nuw %struct.wrapperobject, ptr %7, i32 0, i32 2
  %9 = load ptr, ptr %8, align 8, !tbaa !150
  %10 = call i64 @PyObject_GenericHash(ptr noundef %9)
  store i64 %10, ptr %4, align 8, !tbaa !32
  %11 = load ptr, ptr %3, align 8, !tbaa !9
  %12 = getelementptr inbounds nuw %struct.wrapperobject, ptr %11, i32 0, i32 1
  %13 = load ptr, ptr %12, align 8, !tbaa !148
  %14 = call i64 @Py_HashPointer(ptr noundef %13)
  store i64 %14, ptr %5, align 8, !tbaa !32
  %15 = load i64, ptr %4, align 8, !tbaa !32
  %16 = load i64, ptr %5, align 8, !tbaa !32
  %17 = xor i64 %15, %16
  store i64 %17, ptr %4, align 8, !tbaa !32
  %18 = load i64, ptr %4, align 8, !tbaa !32
  %19 = icmp eq i64 %18, -1
  br i1 %19, label %20, label %21

20:                                               ; preds = %1
  store i64 -2, ptr %4, align 8, !tbaa !32
  br label %21

21:                                               ; preds = %20, %1
  %22 = load i64, ptr %4, align 8, !tbaa !32
  call void @llvm.lifetime.end.p0(i64 8, ptr %5) #6
  call void @llvm.lifetime.end.p0(i64 8, ptr %4) #6
  call void @llvm.lifetime.end.p0(i64 8, ptr %3) #6
  ret i64 %22
}